target datalayout = "e-m:e-p270:32:32-p271:32:32-p272:64:64-i64:64-i128:128-f80:128-n8:16:32:64-S128"
target triple = "x86_64-pc-linux-gnu"

%struct.PJconsts = type <{ ptr, ptr, ptr, ptr, ptr, ptr, ptr, ptr, ptr, ptr, ptr, ptr, i32, [4 x i8], ptr, ptr, ptr, ptr, ptr, ptr, ptr, ptr, double, double, double, double, double, double, double, double, double, double, double, double, double, double, double, double, double, double, double, double, double, double, i32, i32, i32, i32, i32, i32, i32, i32, i32, i32, i32, [4 x i8], ptr, ptr, ptr, ptr, ptr, ptr, double, double, double, double, double, double, double, double, double, double, double, i32, [4 x i8], [7 x double], i32, [4 x i8], ptr, ptr, double, double, i32, [4 x i8], %"class.std::shared_ptr", i8, [7 x i8], double, i8, [7 x i8], %"class.std::__cxx11::basic_string", %"class.std::__cxx11::basic_string", %"class.std::__cxx11::basic_string", i8, [7 x i8], %"class.std::vector", i32, [4 x i8], %"class.std::vector.3", i32, i8, i8, i8, i8 }>
%"class.std::shared_ptr" = type { %"class.std::__shared_ptr" }
%"class.std::__shared_ptr" = type { ptr, %"class.std::__shared_count" }
%"class.std::__shared_count" = type { ptr }
%"class.std::__cxx11::basic_string" = type { %"struct.std::__cxx11::basic_string<char>::_Alloc_hider", i64, %union.anon }
%"struct.std::__cxx11::basic_string<char>::_Alloc_hider" = type { ptr }
%union.anon = type { i64, [8 x i8] }
%"class.std::vector" = type { %"struct.std::_Vector_base" }
%"struct.std::_Vector_base" = type { %"struct.std::_Vector_base<osgeo::proj::operation::GridDescription, std::allocator<osgeo::proj::operation::GridDescription>>::_Vector_impl" }
%"struct.std::_Vector_base<osgeo::proj::operation::GridDescription, std::allocator<osgeo::proj::operation::GridDescription>>::_Vector_impl" = type { %"struct.std::_Vector_base<osgeo::proj::operation::GridDescription, std::allocator<osgeo::proj::operation::GridDescription>>::_Vector_impl_data" }
%"struct.std::_Vector_base<osgeo::proj::operation::GridDescription, std::allocator<osgeo::proj::operation::GridDescription>>::_Vector_impl_data" = type { ptr, ptr, ptr }
%"class.std::vector.3" = type { %"struct.std::_Vector_base.4" }
%"struct.std::_Vector_base.4" = type { %"struct.std::_Vector_base<PJCoordOperation, std::allocator<PJCoordOperation>>::_Vector_impl" }
%"struct.std::_Vector_base<PJCoordOperation, std::allocator<PJCoordOperation>>::_Vector_impl" = type { %"struct.std::_Vector_base<PJCoordOperation, std::allocator<PJCoordOperation>>::_Vector_impl_data" }
%"struct.std::_Vector_base<PJCoordOperation, std::allocator<PJCoordOperation>>::_Vector_impl_data" = type { ptr, ptr, ptr }
%"struct.(anonymous namespace)::horner" = type { i32, i32, i32, double, i8, double, ptr, ptr, ptr, ptr, ptr, ptr, ptr, ptr }
%struct.PJ_UV = type { double, double }

; Function Attrs: mustprogress nounwind uwtable
define linkonce_odr hidden noundef i32 @_Z34horner_number_of_real_coefficientsj(i32 noundef %0) #2 comdat {
  %2 = alloca i32, align 4
  store i32 %0, ptr %2, align 4
  %3 = load i32, ptr %2, align 4
  %4 = add i32 %3, 1
  %5 = load i32, ptr %2, align 4
  %6 = add i32 %5, 2
  %7 = mul i32 %4, %6
  %8 = udiv i32 %7, 2
  ret i32 %8
}

; Function Attrs: mustprogress uwtable
define internal { double, double } @_ZL23double_real_horner_evaljPKdS0_5PJ_UVj(i32 noundef %0, ptr noundef %1, ptr noundef %2, double %3, double %4, i32 noundef %5) #0 {
  %7 = alloca %struct.PJ_UV, align 8
  %8 = alloca %struct.PJ_UV, align 8
  %9 = alloca i32, align 4
  %10 = alloca ptr, align 8
  %11 = alloca ptr, align 8
  %12 = alloca i32, align 4
  %13 = alloca double, align 8
  %14 = alloca double, align 8
  %15 = alloca i32, align 4
  %16 = alloca double, align 8
  %17 = alloca double, align 8
  %18 = alloca i32, align 4
  %19 = alloca double, align 8
  %20 = alloca double, align 8
  %21 = alloca i32, align 4
  %22 = getelementptr inbounds { double, double }, ptr %8, i32 0, i32 0
  store double %3, ptr %22, align 8
  %23 = getelementptr inbounds { double, double }, ptr %8, i32 0, i32 1
  store double %4, ptr %23, align 8
  store i32 %0, ptr %9, align 4
  store ptr %1, ptr %10, align 8
  store ptr %2, ptr %11, align 8
  store i32 %5, ptr %12, align 4
  %24 = getelementptr inbounds %struct.PJ_UV, ptr %8, i32 0, i32 1
  %25 = load double, ptr %24, align 8
  store double %25, ptr %13, align 8
  %26 = getelementptr inbounds %struct.PJ_UV, ptr %8, i32 0, i32 0
  %27 = load double, ptr %26, align 8
  store double %27, ptr %14, align 8
  %28 = load i32, ptr %9, align 4
  %29 = call noundef i32 @_Z34horner_number_of_real_coefficientsj(i32 noundef %28)
  store i32 %29, ptr %15, align 4
  %30 = load i32, ptr %15, align 4
  %31 = load ptr, ptr %10, align 8
  %32 = zext i32 %30 to i64
  %33 = getelementptr inbounds double, ptr %31, i64 %32
  store ptr %33, ptr %10, align 8
  %34 = load i32, ptr %15, align 4
  %35 = load ptr, ptr %11, align 8
  %36 = zext i32 %34 to i64
  %37 = getelementptr inbounds double, ptr %35, i64 %36
  store ptr %37, ptr %11, align 8
  %38 = load ptr, ptr %11, align 8
  %39 = getelementptr inbounds double, ptr %38, i32 -1
  store ptr %39, ptr %11, align 8
  %40 = load double, ptr %39, align 8
  store double %40, ptr %16, align 8
  %41 = load ptr, ptr %10, align 8
  %42 = getelementptr inbounds double, ptr %41, i32 -1
  store ptr %42, ptr %10, align 8
  %43 = load double, ptr %42, align 8
  store double %43, ptr %17, align 8
  %44 = load i32, ptr %9, align 4
  store i32 %44, ptr %18, align 4
  br label %45

45:                                               ; preds = %86, %6
  %46 = load i32, ptr %18, align 4
  %47 = load i32, ptr %12, align 4
  %48 = icmp ugt i32 %46, %47
  br i1 %48, label %49, label %89

49:                                               ; preds = %45
  %50 = load ptr, ptr %11, align 8
  %51 = getelementptr inbounds double, ptr %50, i32 -1
  store ptr %51, ptr %11, align 8
  %52 = load double, ptr %51, align 8
  store double %52, ptr %19, align 8
  %53 = load ptr, ptr %10, align 8
  %54 = getelementptr inbounds double, ptr %53, i32 -1
  store ptr %54, ptr %10, align 8
  %55 = load double, ptr %54, align 8
  store double %55, ptr %20, align 8
  %56 = load i32, ptr %9, align 4
  store i32 %56, ptr %21, align 4
  br label %57

57:                                               ; preds = %74, %49
  %58 = load i32, ptr %21, align 4
  %59 = load i32, ptr %18, align 4
  %60 = icmp uge i32 %58, %59
  br i1 %60, label %61, label %77

61:                                               ; preds = %57
  %62 = load double, ptr %13, align 8
  %63 = load double, ptr %19, align 8
  %64 = load ptr, ptr %11, align 8
  %65 = getelementptr inbounds double, ptr %64, i32 -1
  store ptr %65, ptr %11, align 8
  %66 = load double, ptr %65, align 8
  %67 = call double @llvm.fmuladd.f64(double %62, double %63, double %66)
  store double %67, ptr %19, align 8
  %68 = load double, ptr %14, align 8
  %69 = load double, ptr %20, align 8
  %70 = load ptr, ptr %10, align 8
  %71 = getelementptr inbounds double, ptr %70, i32 -1
  store ptr %71, ptr %10, align 8
  %72 = load double, ptr %71, align 8
  %73 = call double @llvm.fmuladd.f64(double %68, double %69, double %72)
  store double %73, ptr %20, align 8
  br label %74

74:                                               ; preds = %61
  %75 = load i32, ptr %21, align 4
  %76 = add i32 %75, -1
  store i32 %76, ptr %21, align 4
  br label %57, !llvm.loop !8

77:                                               ; preds = %57
  %78 = load double, ptr %14, align 8
  %79 = load double, ptr %16, align 8
  %80 = load double, ptr %19, align 8
  %81 = call double @llvm.fmuladd.f64(double %78, double %79, double %80)
  store double %81, ptr %16, align 8
  %82 = load double, ptr %13, align 8
  %83 = load double, ptr %17, align 8
  %84 = load double, ptr %20, align 8
  %85 = call double @llvm.fmuladd.f64(double %82, double %83, double %84)
  store double %85, ptr %17, align 8
  br label %86

86:                                               ; preds = %77
  %87 = load i32, ptr %18, align 4
  %88 = add i32 %87, -1
  store i32 %88, ptr %18, align 4
  br label %45, !llvm.loop !9

89:                                               ; preds = %45
  %90 = getelementptr inbounds %struct.PJ_UV, ptr %7, i32 0, i32 0
  %91 = load double, ptr %17, align 8
  store double %91, ptr %90, align 8
  %92 = getelementptr inbounds %struct.PJ_UV, ptr %7, i32 0, i32 1
  %93 = load double, ptr %16, align 8
  store double %93, ptr %92, align 8
  %94 = load { double, double }, ptr %7, align 8
  ret { double, double } %94
}

; Function Attrs: mustprogress nounwind uwtable
define internal { double, double } @_ZL21generate_error_coordsv() #2 {
  %1 = alloca %struct.PJ_UV, align 8
  %2 = getelementptr inbounds %struct.PJ_UV, ptr %1, i32 0, i32 1
  store double 0x7FF0000000000000, ptr %2, align 8
  %3 = getelementptr inbounds %struct.PJ_UV, ptr %1, i32 0, i32 0
  store double 0x7FF0000000000000, ptr %3, align 8
  %4 = load { double, double }, ptr %1, align 8
  ret { double, double } %4
}

; Function Attrs: mustprogress uwtable
define internal noundef zeroext i1 @_ZL19coords_out_of_rangeP8PJconstsPKN12_GLOBAL__N_16hornerEdd(ptr noundef %0, ptr noundef %1, double noundef %2, double noundef %3) #0 {
  %5 = alloca i1, align 1
  %6 = alloca ptr, align 8
  %7 = alloca ptr, align 8
  %8 = alloca double, align 8
  %9 = alloca double, align 8
  %10 = alloca double, align 8
  store ptr %0, ptr %6, align 8
  store ptr %1, ptr %7, align 8
  store double %2, ptr %8, align 8
  store double %3, ptr %9, align 8
  %11 = load ptr, ptr %7, align 8
  %12 = getelementptr inbounds %"struct.(anonymous namespace)::horner", ptr %11, i32 0, i32 3
  %13 = load double, ptr %12, align 8
  store double %13, ptr %10, align 8
  %14 = load double, ptr %8, align 8
  %15 = call double @llvm.fabs.f64(double %14)
  %16 = load double, ptr %10, align 8
  %17 = fcmp ogt double %15, %16
  br i1 %17, label %23, label %18

18:                                               ; preds = %4
  %19 = load double, ptr %9, align 8
  %20 = call double @llvm.fabs.f64(double %19)
  %21 = load double, ptr %10, align 8
  %22 = fcmp ogt double %20, %21
  br i1 %22, label %23, label %26

23:                                               ; preds = %18, %4
  %24 = load ptr, ptr %6, align 8
  %25 = call i32 @proj_errno_set(ptr noundef %24, i32 noundef 2050)
  store i1 true, ptr %5, align 1
  br label %27

26:                                               ; preds = %18
  store i1 false, ptr %5, align 1
  br label %27

27:                                               ; preds = %26, %23
  %28 = load i1, ptr %5, align 1
  ret i1 %28
}

; Function Attrs: mustprogress uwtable
define internal { double, double } @_ZL17real_default_implP8PJconstsPKN12_GLOBAL__N_16hornerE12PJ_DIRECTION5PJ_UV(ptr noundef %0, ptr noundef %1, i32 noundef %2, double %3, double %4) #0 {
  %6 = alloca %struct.PJ_UV, align 8
  %7 = alloca %struct.PJ_UV, align 8
  %8 = alloca ptr, align 8
  %9 = alloca ptr, align 8
  %10 = alloca i32, align 4
  %11 = alloca double, align 8
  %12 = alloca double, align 8
  %13 = alloca ptr, align 8
  %14 = alloca ptr, align 8
  %15 = alloca %struct.PJ_UV, align 8
  %16 = alloca %struct.PJ_UV, align 8
  %17 = alloca %struct.PJ_UV, align 8
  %18 = getelementptr inbounds { double, double }, ptr %7, i32 0, i32 0
  store double %3, ptr %18, align 8
  %19 = getelementptr inbounds { double, double }, ptr %7, i32 0, i32 1
  store double %4, ptr %19, align 8
  store ptr %0, ptr %8, align 8
  store ptr %1, ptr %9, align 8
  store i32 %2, ptr %10, align 4
  %20 = load i32, ptr %10, align 4
  %21 = icmp eq i32 %20, 1
  br i1 %21, label %22, label %39

22:                                               ; preds = %5
  %23 = getelementptr inbounds %struct.PJ_UV, ptr %7, i32 0, i32 0
  %24 = load double, ptr %23, align 8
  %25 = load ptr, ptr %9, align 8
  %26 = getelementptr inbounds %"struct.(anonymous namespace)::horner", ptr %25, i32 0, i32 12
  %27 = load ptr, ptr %26, align 8
  %28 = getelementptr inbounds %struct.PJ_UV, ptr %27, i32 0, i32 0
  %29 = load double, ptr %28, align 8
  %30 = fsub double %24, %29
  store double %30, ptr %12, align 8
  %31 = getelementptr inbounds %struct.PJ_UV, ptr %7, i32 0, i32 1
  %32 = load double, ptr %31, align 8
  %33 = load ptr, ptr %9, align 8
  %34 = getelementptr inbounds %"struct.(anonymous namespace)::horner", ptr %33, i32 0, i32 12
  %35 = load ptr, ptr %34, align 8
  %36 = getelementptr inbounds %struct.PJ_UV, ptr %35, i32 0, i32 1
  %37 = load double, ptr %36, align 8
  %38 = fsub double %32, %37
  store double %38, ptr %11, align 8
  br label %56

39:                                               ; preds = %5
  %40 = getelementptr inbounds %struct.PJ_UV, ptr %7, i32 0, i32 0
  %41 = load double, ptr %40, align 8
  %42 = load ptr, ptr %9, align 8
  %43 = getelementptr inbounds %"struct.(anonymous namespace)::horner", ptr %42, i32 0, i32 13
  %44 = load ptr, ptr %43, align 8
  %45 = getelementptr inbounds %struct.PJ_UV, ptr %44, i32 0, i32 0
  %46 = load double, ptr %45, align 8
  %47 = fsub double %41, %46
  store double %47, ptr %12, align 8
  %48 = getelementptr inbounds %struct.PJ_UV, ptr %7, i32 0, i32 1
  %49 = load double, ptr %48, align 8
  %50 = load ptr, ptr %9, align 8
  %51 = getelementptr inbounds %"struct.(anonymous namespace)::horner", ptr %50, i32 0, i32 13
  %52 = load ptr, ptr %51, align 8
  %53 = getelementptr inbounds %struct.PJ_UV, ptr %52, i32 0, i32 1
  %54 = load double, ptr %53, align 8
  %55 = fsub double %49, %54
  store double %55, ptr %11, align 8
  br label %56

56:                                               ; preds = %39, %22
  %57 = load ptr, ptr %8, align 8
  %58 = load ptr, ptr %9, align 8
  %59 = load double, ptr %11, align 8
  %60 = load double, ptr %12, align 8
  %61 = call noundef zeroext i1 @_ZL19coords_out_of_rangeP8PJconstsPKN12_GLOBAL__N_16hornerEdd(ptr noundef %57, ptr noundef %58, double noundef %59, double noundef %60)
  br i1 %61, label %62, label %68

62:                                               ; preds = %56
  %63 = call { double, double } @_ZL21generate_error_coordsv()
  %64 = getelementptr inbounds { double, double }, ptr %6, i32 0, i32 0
  %65 = extractvalue { double, double } %63, 0
  store double %65, ptr %64, align 8
  %66 = getelementptr inbounds { double, double }, ptr %6, i32 0, i32 1
  %67 = extractvalue { double, double } %63, 1
  store double %67, ptr %66, align 8
  br label %111

68:                                               ; preds = %56
  %69 = load i32, ptr %10, align 4
  %70 = icmp eq i32 %69, 1
  br i1 %70, label %71, label %75

71:                                               ; preds = %68
  %72 = load ptr, ptr %9, align 8
  %73 = getelementptr inbounds %"struct.(anonymous namespace)::horner", ptr %72, i32 0, i32 6
  %74 = load ptr, ptr %73, align 8
  br label %79

75:                                               ; preds = %68
  %76 = load ptr, ptr %9, align 8
  %77 = getelementptr inbounds %"struct.(anonymous namespace)::horner", ptr %76, i32 0, i32 8
  %78 = load ptr, ptr %77, align 8
  br label %79

79:                                               ; preds = %75, %71
  %80 = phi ptr [ %74, %71 ], [ %78, %75 ]
  store ptr %80, ptr %13, align 8
  %81 = load i32, ptr %10, align 4
  %82 = icmp eq i32 %81, 1
  br i1 %82, label %83, label %87

83:                                               ; preds = %79
  %84 = load ptr, ptr %9, align 8
  %85 = getelementptr inbounds %"struct.(anonymous namespace)::horner", ptr %84, i32 0, i32 7
  %86 = load ptr, ptr %85, align 8
  br label %91

87:                                               ; preds = %79
  %88 = load ptr, ptr %9, align 8
  %89 = getelementptr inbounds %"struct.(anonymous namespace)::horner", ptr %88, i32 0, i32 9
  %90 = load ptr, ptr %89, align 8
  br label %91

91:                                               ; preds = %87, %83
  %92 = phi ptr [ %86, %83 ], [ %90, %87 ]
  store ptr %92, ptr %14, align 8
  %93 = getelementptr inbounds %struct.PJ_UV, ptr %15, i32 0, i32 0
  %94 = load double, ptr %12, align 8
  store double %94, ptr %93, align 8
  %95 = getelementptr inbounds %struct.PJ_UV, ptr %15, i32 0, i32 1
  %96 = load double, ptr %11, align 8
  store double %96, ptr %95, align 8
  %97 = load ptr, ptr %9, align 8
  %98 = getelementptr inbounds %"struct.(anonymous namespace)::horner", ptr %97, i32 0, i32 2
  %99 = load i32, ptr %98, align 8
  %100 = load ptr, ptr %13, align 8
  %101 = load ptr, ptr %14, align 8
  call void @llvm.memcpy.p0.p0.i64(ptr align 8 %17, ptr align 8 %15, i64 16, i1 false)
  %102 = getelementptr inbounds { double, double }, ptr %17, i32 0, i32 0
  %103 = load double, ptr %102, align 8
  %104 = getelementptr inbounds { double, double }, ptr %17, i32 0, i32 1
  %105 = load double, ptr %104, align 8
  %106 = call { double, double } @_ZL23double_real_horner_evaljPKdS0_5PJ_UVj(i32 noundef %99, ptr noundef %100, ptr noundef %101, double %103, double %105, i32 noundef 0)
  %107 = getelementptr inbounds { double, double }, ptr %16, i32 0, i32 0
  %108 = extractvalue { double, double } %106, 0
  store double %108, ptr %107, align 8
  %109 = getelementptr inbounds { double, double }, ptr %16, i32 0, i32 1
  %110 = extractvalue { double, double } %106, 1
  store double %110, ptr %109, align 8
  call void @llvm.memcpy.p0.p0.i64(ptr align 8 %7, ptr align 8 %16, i64 16, i1 false)
  call void @llvm.memcpy.p0.p0.i64(ptr align 8 %6, ptr align 8 %7, i64 16, i1 false)
  br label %111

111:                                              ; preds = %91, %62
  %112 = load { double, double }, ptr %6, align 8
  ret { double, double } %112
}

; Function Attrs: mustprogress uwtable
define internal void @_ZL17horner_forward_4dR8PJ_COORDP8PJconsts(ptr noundef nonnull align 8 dereferenceable(32) %0, ptr noundef %1) #0 {
  %3 = alloca ptr, align 8
  %4 = alloca ptr, align 8
  %5 = alloca ptr, align 8
  %6 = alloca %struct.PJ_UV, align 8
  %7 = alloca %struct.PJ_UV, align 8
  store ptr %0, ptr %3, align 8
  store ptr %1, ptr %4, align 8
  %8 = load ptr, ptr %4, align 8
  %9 = getelementptr inbounds %struct.PJconsts, ptr %8, i32 0, i32 11
  %10 = load ptr, ptr %9, align 8
  store ptr %10, ptr %5, align 8
  %11 = load ptr, ptr %4, align 8
  %12 = load ptr, ptr %5, align 8
  %13 = load ptr, ptr %3, align 8
  call void @llvm.memcpy.p0.p0.i64(ptr align 8 %7, ptr align 8 %13, i64 16, i1 false)
  %14 = getelementptr inbounds { double, double }, ptr %7, i32 0, i32 0
  %15 = load double, ptr %14, align 8
  %16 = getelementptr inbounds { double, double }, ptr %7, i32 0, i32 1
  %17 = load double, ptr %16, align 8
  %18 = call { double, double } @_ZL17real_default_implP8PJconstsPKN12_GLOBAL__N_16hornerE12PJ_DIRECTION5PJ_UV(ptr noundef %11, ptr noundef %12, i32 noundef 1, double %15, double %17)
  %19 = getelementptr inbounds { double, double }, ptr %6, i32 0, i32 0
  %20 = extractvalue { double, double } %18, 0
  store double %20, ptr %19, align 8
  %21 = getelementptr inbounds { double, double }, ptr %6, i32 0, i32 1
  %22 = extractvalue { double, double } %18, 1
  store double %22, ptr %21, align 8
  %23 = load ptr, ptr %3, align 8
  call void @llvm.memcpy.p0.p0.i64(ptr align 8 %23, ptr align 8 %6, i64 16, i1 false)
  ret void
}