; Function Attrs: mustprogress uwtable
define internal void @_ZL17horner_forward_4dR8PJ_COORDP8PJconsts(ptr nocapture noundef nonnull align 8 dereferenceable(32) %0, ptr noundef %1) #0 {
  %3 = getelementptr inbounds i8, ptr %1, i64 88
  %4 = load ptr, ptr %3, align 8
  %.pn.in.in.i = getelementptr inbounds i8, ptr %4, i64 88
  %.pn.in.i = load ptr, ptr %.pn.in.in.i, align 8
  %5 = load <2 x double>, ptr %0, align 8
  %6 = load <2 x double>, ptr %.pn.in.i, align 8
  %7 = fsub <2 x double> %5, %6
  %8 = shufflevector <2 x double> %7, <2 x double> poison, <2 x i32> <i32 1, i32 0>
  %9 = getelementptr i8, ptr %4, i64 16
  %.val.i = load double, ptr %9, align 8
  %10 = extractelement <2 x double> %7, i64 1
  %11 = tail call double @llvm.fabs.f64(double %10)
  %12 = fcmp ogt double %11, %.val.i
  %13 = extractelement <2 x double> %7, i64 0
  %14 = tail call double @llvm.fabs.f64(double %13)
  %15 = fcmp ogt double %14, %.val.i
  %or.cond.i.i = or i1 %12, %15
  br i1 %or.cond.i.i, label %16, label %_ZL19coords_out_of_rangeP8PJconstsPKN12_GLOBAL__N_16hornerEdd.exit.i

16:                                               ; preds = %2
  %17 = tail call i32 @proj_errno_set(ptr noundef nonnull %1, i32 noundef 2050)
  br label %_ZL17real_default_implP8PJconstsPKN12_GLOBAL__N_16hornerE12PJ_DIRECTION5PJ_UV.exit

_ZL19coords_out_of_rangeP8PJconstsPKN12_GLOBAL__N_16hornerEdd.exit.i: ; preds = %2
  %.in.i = getelementptr inbounds i8, ptr %4, i64 40
  %18 = load ptr, ptr %.in.i, align 8
  %.in30.i = getelementptr inbounds i8, ptr %4, i64 48
  %19 = load ptr, ptr %.in30.i, align 8
  %20 = getelementptr inbounds i8, ptr %4, i64 8
  %21 = load i32, ptr %20, align 8
  %22 = add i32 %21, 1
  %23 = add i32 %21, 2
  %24 = mul i32 %22, %23
  %25 = lshr i32 %24, 1
  %26 = zext nneg i32 %25 to i64
  %27 = getelementptr inbounds double, ptr %18, i64 %26
  %28 = getelementptr inbounds double, ptr %19, i64 %26
  %29 = getelementptr inbounds i8, ptr %28, i64 -8
  %30 = load double, ptr %29, align 8
  %31 = getelementptr inbounds i8, ptr %27, i64 -8
  %32 = load double, ptr %31, align 8
  %.not.i = icmp eq i32 %21, 0
  %33 = insertelement <2 x double> poison, double %32, i64 0
  %34 = insertelement <2 x double> %33, double %30, i64 1
  br i1 %.not.i, label %_ZL17real_default_implP8PJconstsPKN12_GLOBAL__N_16hornerE12PJ_DIRECTION5PJ_UV.exit, label %.lr.ph55.i.i

.lr.ph55.i.i:                                     ; preds = %_ZL19coords_out_of_rangeP8PJconstsPKN12_GLOBAL__N_16hornerEdd.exit.i, %._crit_edge.i.i
  %.03453.i.i = phi i32 [ %53, %._crit_edge.i.i ], [ %21, %_ZL19coords_out_of_rangeP8PJconstsPKN12_GLOBAL__N_16hornerEdd.exit.i ]
  %.03750.i.i = phi ptr [ %.1.lcssa.i.i, %._crit_edge.i.i ], [ %31, %_ZL19coords_out_of_rangeP8PJconstsPKN12_GLOBAL__N_16hornerEdd.exit.i ]
  %.03849.i.i = phi ptr [ %.139.lcssa.i.i, %._crit_edge.i.i ], [ %29, %_ZL19coords_out_of_rangeP8PJconstsPKN12_GLOBAL__N_16hornerEdd.exit.i ]
  %35 = phi <2 x double> [ %52, %._crit_edge.i.i ], [ %34, %_ZL19coords_out_of_rangeP8PJconstsPKN12_GLOBAL__N_16hornerEdd.exit.i ]
  %36 = getelementptr inbounds i8, ptr %.03849.i.i, i64 -8
  %37 = load double, ptr %36, align 8
  %38 = getelementptr inbounds i8, ptr %.03750.i.i, i64 -8
  %39 = load double, ptr %38, align 8
  %.not40.i.i = icmp ugt i32 %.03453.i.i, %21
  %40 = insertelement <2 x double> poison, double %39, i64 0
  %41 = insertelement <2 x double> %40, double %37, i64 1
  br i1 %.not40.i.i, label %._crit_edge.i.i, label %.lr.ph.i.i

.lr.ph.i.i:                                       ; preds = %.lr.ph55.i.i, %.lr.ph.i.i
  %.045.i.i = phi i32 [ %50, %.lr.ph.i.i ], [ %21, %.lr.ph55.i.i ]
  %.142.i.i = phi ptr [ %45, %.lr.ph.i.i ], [ %38, %.lr.ph55.i.i ]
  %.13941.i.i = phi ptr [ %43, %.lr.ph.i.i ], [ %36, %.lr.ph55.i.i ]
  %42 = phi <2 x double> [ %49, %.lr.ph.i.i ], [ %41, %.lr.ph55.i.i ]
  %43 = getelementptr inbounds i8, ptr %.13941.i.i, i64 -8
  %44 = load double, ptr %43, align 8
  %45 = getelementptr inbounds i8, ptr %.142.i.i, i64 -8
  %46 = load double, ptr %45, align 8
  %47 = insertelement <2 x double> poison, double %46, i64 0
  %48 = insertelement <2 x double> %47, double %44, i64 1
  %49 = tail call <2 x double> @llvm.fmuladd.v2f64(<2 x double> %7, <2 x double> %42, <2 x double> %48)
  %50 = add i32 %.045.i.i, -1
  %.not.i.i = icmp ult i32 %50, %.03453.i.i
  br i1 %.not.i.i, label %._crit_edge.i.i, label %.lr.ph.i.i, !llvm.loop !8

._crit_edge.i.i:                                  ; preds = %.lr.ph.i.i, %.lr.ph55.i.i
  %.139.lcssa.i.i = phi ptr [ %36, %.lr.ph55.i.i ], [ %43, %.lr.ph.i.i ]
  %.1.lcssa.i.i = phi ptr [ %38, %.lr.ph55.i.i ], [ %45, %.lr.ph.i.i ]
  %51 = phi <2 x double> [ %41, %.lr.ph55.i.i ], [ %49, %.lr.ph.i.i ]
  %52 = tail call <2 x double> @llvm.fmuladd.v2f64(<2 x double> %8, <2 x double> %35, <2 x double> %51)
  %53 = add i32 %.03453.i.i, -1
  %.not31.i = icmp eq i32 %53, 0
  br i1 %.not31.i, label %_ZL17real_default_implP8PJconstsPKN12_GLOBAL__N_16hornerE12PJ_DIRECTION5PJ_UV.exit, label %.lr.ph55.i.i, !llvm.loop !9

_ZL17real_default_implP8PJconstsPKN12_GLOBAL__N_16hornerE12PJ_DIRECTION5PJ_UV.exit: ; preds = %._crit_edge.i.i, %16, %_ZL19coords_out_of_rangeP8PJconstsPKN12_GLOBAL__N_16hornerEdd.exit.i
  %54 = phi <2 x double> [ <double 0x7FF0000000000000, double 0x7FF0000000000000>, %16 ], [ %34, %_ZL19coords_out_of_rangeP8PJconstsPKN12_GLOBAL__N_16hornerEdd.exit.i ], [ %52, %._crit_edge.i.i ]
  store <2 x double> %54, ptr %0, align 8
  ret void
}